; Function Attrs: mustprogress uwtable
define void @_Z23common_speculative_freeP18common_speculative(ptr noundef %0) local_unnamed_addr #0 personality ptr @__gxx_personality_v0 {
  %2 = icmp eq ptr %0, null
  br i1 %2, label %15, label %3

3:                                                ; preds = %1
  %4 = getelementptr inbounds nuw i8, ptr %0, i64 8
  %5 = load ptr, ptr %4, align 8, !tbaa !21
  tail call void @_Z19common_sampler_freeP14common_sampler(ptr noundef %5)
  %6 = getelementptr inbounds nuw i8, ptr %0, i64 16
  tail call void @llama_batch_free(ptr noundef nonnull byval(%struct.llama_batch) align 8 %6)
  %7 = getelementptr inbounds nuw i8, ptr %0, i64 72
  %8 = load ptr, ptr %7, align 8, !tbaa !103
  %.not.i.i.i.i = icmp eq ptr %8, null
  br i1 %.not.i.i.i.i, label %_ZN18common_speculativeD2Ev.exit, label %9

9:                                                ; preds = %3
  %10 = getelementptr inbounds nuw i8, ptr %0, i64 88
  %11 = load ptr, ptr %10, align 8, !tbaa !104
  %12 = ptrtoint ptr %11 to i64
  %13 = ptrtoint ptr %8 to i64
  %14 = sub i64 %12, %13
  tail call void @_ZdlPvm(ptr noundef nonnull %8, i64 noundef %14) #19
  br label %_ZN18common_speculativeD2Ev.exit

_ZN18common_speculativeD2Ev.exit:                 ; preds = %3, %9
  tail call void @_ZdlPvm(ptr noundef nonnull %0, i64 noundef 96) #19
  br label %15

15:                                               ; preds = %1, %_ZN18common_speculativeD2Ev.exit
  ret void
}